; Function Attrs: nounwind uwtable
define ptr @l___private_Std_Data_DTreeMap_Internal_Balancing_0__Std_DTreeMap_Internal_Impl_balanceL_match__7_splitter___rarg(ptr noundef %0, ptr readnone captures(none) %1, ptr readnone captures(none) %2, ptr noundef %3, ptr noundef %4) #0 {
  %6 = ptrtoint ptr %0 to i64
  %7 = and i64 %6, 1
  %.not.i34 = icmp eq i64 %7, 0
  br i1 %.not.i34, label %11, label %8

8:                                                ; preds = %5
  %9 = lshr i64 %6, 1
  %10 = trunc i64 %9 to i32
  br label %lean_obj_tag.exit

11:                                               ; preds = %5
  %12 = getelementptr i8, ptr %0, i64 4
  %.val.i = load i32, ptr %12, align 4
  %13 = lshr i32 %.val.i, 24
  br label %lean_obj_tag.exit

lean_obj_tag.exit:                                ; preds = %8, %11
  %.0.i = phi i32 [ %10, %8 ], [ %13, %11 ]
  %14 = icmp eq i32 %.0.i, 0
  br i1 %14, label %15, label %83

15:                                               ; preds = %lean_obj_tag.exit
  %16 = ptrtoint ptr %3 to i64
  %17 = and i64 %16, 1
  %.not49 = icmp eq i64 %17, 0
  br i1 %.not49, label %18, label %lean_dec.exit25

18:                                               ; preds = %15
  %19 = load i32, ptr %3, align 4, !tbaa !8
  %20 = icmp sgt i32 %19, 1
  br i1 %20, label %21, label %23, !prof !11

21:                                               ; preds = %18
  %22 = add nsw i32 %19, -1
  store i32 %22, ptr %3, align 4, !tbaa !8
  br label %lean_dec.exit25

23:                                               ; preds = %18
  %.not.i = icmp eq i32 %19, 0
  br i1 %.not.i, label %lean_dec.exit25, label %24

24:                                               ; preds = %23
  tail call void @lean_dec_ref_cold(ptr noundef nonnull %3) #6
  br label %lean_dec.exit25

lean_dec.exit25:                                  ; preds = %24, %23, %21, %15
  %25 = getelementptr inbounds nuw i8, ptr %0, i64 8
  %26 = load ptr, ptr %25, align 8, !tbaa !4
  %27 = ptrtoint ptr %26 to i64
  %28 = and i64 %27, 1
  %.not50 = icmp eq i64 %28, 0
  br i1 %.not50, label %29, label %lean_inc.exit29

29:                                               ; preds = %lean_dec.exit25
  %.val.i35 = load i32, ptr %26, align 4, !tbaa !8
  %30 = icmp sgt i32 %.val.i35, 0
  br i1 %30, label %31, label %33, !prof !11

31:                                               ; preds = %29
  %32 = add nuw i32 %.val.i35, 1
  store i32 %32, ptr %26, align 4, !tbaa !8
  br label %lean_inc.exit29

33:                                               ; preds = %29
  %.not.i36 = icmp eq i32 %.val.i35, 0
  br i1 %.not.i36, label %lean_inc.exit29, label %34

34:                                               ; preds = %33
  tail call void @lean_inc_ref_cold(ptr noundef nonnull %26) #6
  br label %lean_inc.exit29

lean_inc.exit29:                                  ; preds = %34, %33, %31, %lean_dec.exit25
  %35 = getelementptr inbounds nuw i8, ptr %0, i64 16
  %36 = load ptr, ptr %35, align 8, !tbaa !4
  %37 = ptrtoint ptr %36 to i64
  %38 = and i64 %37, 1
  %.not51 = icmp eq i64 %38, 0
  br i1 %.not51, label %39, label %lean_inc.exit28

39:                                               ; preds = %lean_inc.exit29
  %.val.i37 = load i32, ptr %36, align 4, !tbaa !8
  %40 = icmp sgt i32 %.val.i37, 0
  br i1 %40, label %41, label %43, !prof !11

41:                                               ; preds = %39
  %42 = add nuw i32 %.val.i37, 1
  store i32 %42, ptr %36, align 4, !tbaa !8
  br label %lean_inc.exit28

43:                                               ; preds = %39
  %.not.i38 = icmp eq i32 %.val.i37, 0
  br i1 %.not.i38, label %lean_inc.exit28, label %44

44:                                               ; preds = %43
  tail call void @lean_inc_ref_cold(ptr noundef nonnull %36) #6
  br label %lean_inc.exit28

lean_inc.exit28:                                  ; preds = %44, %43, %41, %lean_inc.exit29
  %45 = getelementptr inbounds nuw i8, ptr %0, i64 24
  %46 = load ptr, ptr %45, align 8, !tbaa !4
  %47 = ptrtoint ptr %46 to i64
  %48 = and i64 %47, 1
  %.not52 = icmp eq i64 %48, 0
  br i1 %.not52, label %49, label %lean_inc.exit27

49:                                               ; preds = %lean_inc.exit28
  %.val.i40 = load i32, ptr %46, align 4, !tbaa !8
  %50 = icmp sgt i32 %.val.i40, 0
  br i1 %50, label %51, label %53, !prof !11

51:                                               ; preds = %49
  %52 = add nuw i32 %.val.i40, 1
  store i32 %52, ptr %46, align 4, !tbaa !8
  br label %lean_inc.exit27

53:                                               ; preds = %49
  %.not.i41 = icmp eq i32 %.val.i40, 0
  br i1 %.not.i41, label %lean_inc.exit27, label %54

54:                                               ; preds = %53
  tail call void @lean_inc_ref_cold(ptr noundef nonnull %46) #6
  br label %lean_inc.exit27

lean_inc.exit27:                                  ; preds = %54, %53, %51, %lean_inc.exit28
  %55 = getelementptr inbounds nuw i8, ptr %0, i64 32
  %56 = load ptr, ptr %55, align 8, !tbaa !4
  %57 = ptrtoint ptr %56 to i64
  %58 = and i64 %57, 1
  %.not53 = icmp eq i64 %58, 0
  br i1 %.not53, label %59, label %lean_inc.exit26

59:                                               ; preds = %lean_inc.exit27
  %.val.i43 = load i32, ptr %56, align 4, !tbaa !8
  %60 = icmp sgt i32 %.val.i43, 0
  br i1 %60, label %61, label %63, !prof !11

61:                                               ; preds = %59
  %62 = add nuw i32 %.val.i43, 1
  store i32 %62, ptr %56, align 4, !tbaa !8
  br label %lean_inc.exit26

63:                                               ; preds = %59
  %.not.i44 = icmp eq i32 %.val.i43, 0
  br i1 %.not.i44, label %lean_inc.exit26, label %64

64:                                               ; preds = %63
  tail call void @lean_inc_ref_cold(ptr noundef nonnull %56) #6
  br label %lean_inc.exit26

lean_inc.exit26:                                  ; preds = %64, %63, %61, %lean_inc.exit27
  %65 = getelementptr inbounds nuw i8, ptr %0, i64 40
  %66 = load ptr, ptr %65, align 8, !tbaa !4
  %67 = ptrtoint ptr %66 to i64
  %68 = and i64 %67, 1
  %.not54 = icmp eq i64 %68, 0
  br i1 %.not54, label %69, label %lean_inc.exit

69:                                               ; preds = %lean_inc.exit26
  %.val.i46 = load i32, ptr %66, align 4, !tbaa !8
  %70 = icmp sgt i32 %.val.i46, 0
  br i1 %70, label %71, label %73, !prof !11

71:                                               ; preds = %69
  %72 = add nuw i32 %.val.i46, 1
  store i32 %72, ptr %66, align 4, !tbaa !8
  br label %lean_inc.exit

73:                                               ; preds = %69
  %.not.i47 = icmp eq i32 %.val.i46, 0
  br i1 %.not.i47, label %lean_inc.exit, label %74

74:                                               ; preds = %73
  tail call void @lean_inc_ref_cold(ptr noundef nonnull %66) #6
  br label %lean_inc.exit

lean_inc.exit:                                    ; preds = %74, %73, %71, %lean_inc.exit26
  br i1 %.not.i34, label %75, label %lean_dec.exit24

75:                                               ; preds = %lean_inc.exit
  %76 = load i32, ptr %0, align 4, !tbaa !8
  %77 = icmp sgt i32 %76, 1
  br i1 %77, label %78, label %80, !prof !11

78:                                               ; preds = %75
  %79 = add nsw i32 %76, -1
  store i32 %79, ptr %0, align 4, !tbaa !8
  br label %lean_dec.exit24

80:                                               ; preds = %75
  %.not.i30 = icmp eq i32 %76, 0
  br i1 %.not.i30, label %lean_dec.exit24, label %81

81:                                               ; preds = %80
  tail call void @lean_dec_ref_cold(ptr noundef nonnull %0) #6
  br label %lean_dec.exit24

lean_dec.exit24:                                  ; preds = %81, %80, %78, %lean_inc.exit
  %82 = tail call ptr @lean_apply_7(ptr noundef %4, ptr noundef %26, ptr noundef %36, ptr noundef %46, ptr noundef %56, ptr noundef %66, ptr noundef nonnull inttoptr (i64 1 to ptr), ptr noundef nonnull inttoptr (i64 1 to ptr)) #6
  br label %94

83:                                               ; preds = %lean_obj_tag.exit
  %84 = ptrtoint ptr %4 to i64
  %85 = and i64 %84, 1
  %.not = icmp eq i64 %85, 0
  br i1 %.not, label %86, label %lean_dec.exit

86:                                               ; preds = %83
  %87 = load i32, ptr %4, align 4, !tbaa !8
  %88 = icmp sgt i32 %87, 1
  br i1 %88, label %89, label %91, !prof !11

89:                                               ; preds = %86
  %90 = add nsw i32 %87, -1
  store i32 %90, ptr %4, align 4, !tbaa !8
  br label %lean_dec.exit

91:                                               ; preds = %86
  %.not.i32 = icmp eq i32 %87, 0
  br i1 %.not.i32, label %lean_dec.exit, label %92

92:                                               ; preds = %91
  tail call void @lean_dec_ref_cold(ptr noundef nonnull %4) #6
  br label %lean_dec.exit

lean_dec.exit:                                    ; preds = %92, %91, %89, %83
  %93 = tail call ptr @lean_apply_2(ptr noundef %3, ptr noundef nonnull inttoptr (i64 1 to ptr), ptr noundef nonnull inttoptr (i64 1 to ptr)) #6
  br label %94

94:                                               ; preds = %lean_dec.exit, %lean_dec.exit24
  %.0 = phi ptr [ %82, %lean_dec.exit24 ], [ %93, %lean_dec.exit ]
  ret ptr %.0
}